target datalayout = "e-m:e-p270:32:32-p271:32:32-p272:64:64-i64:64-i128:128-f80:128-n8:16:32:64-S128"
target triple = "x86_64-pc-linux-gnu"

%struct._cms_iccprofile_struct = type { ptr, ptr, %struct.tm, i32, i32, i32, i32, i32, i32, i32, i32, i32, i32, i64, i32, %union.cmsProfileID, i32, [100 x i32], [100 x i32], [100 x i32], [100 x i32], [100 x i32], [100 x ptr], [100 x ptr], i32, ptr }
%struct.tm = type { i32, i32, i32, i32, i32, i32, i32, i32, i32, i64, ptr }
%union.cmsProfileID = type { [4 x i32] }

@.str.14 = private unnamed_addr constant [2 x i8] c"r\00", align 1

; Function Attrs: nounwind uwtable
define hidden ptr @cmsCreateProfilePlaceholder(ptr noundef %0) #0 {
  %2 = alloca ptr, align 8
  %3 = alloca ptr, align 8
  %4 = alloca ptr, align 8
  store ptr %0, ptr %3, align 8
  %5 = load ptr, ptr %3, align 8
  %6 = call ptr @_cmsMallocZero(ptr noundef %5, i32 noundef 3760)
  store ptr %6, ptr %4, align 8
  %7 = load ptr, ptr %4, align 8
  %8 = icmp eq ptr %7, null
  br i1 %8, label %9, label %10

9:                                                ; preds = %1
  store ptr null, ptr %2, align 8
  br label %40

10:                                               ; preds = %1
  %11 = load ptr, ptr %3, align 8
  %12 = load ptr, ptr %4, align 8
  %13 = getelementptr inbounds %struct._cms_iccprofile_struct, ptr %12, i32 0, i32 1
  store ptr %11, ptr %13, align 8
  %14 = load ptr, ptr %4, align 8
  %15 = getelementptr inbounds %struct._cms_iccprofile_struct, ptr %14, i32 0, i32 16
  store i32 0, ptr %15, align 4
  %16 = load ptr, ptr %4, align 8
  %17 = getelementptr inbounds %struct._cms_iccprofile_struct, ptr %16, i32 0, i32 4
  store i32 34603008, ptr %17, align 4
  %18 = load ptr, ptr %4, align 8
  %19 = getelementptr inbounds %struct._cms_iccprofile_struct, ptr %18, i32 0, i32 3
  store i32 1818455411, ptr %19, align 8
  %20 = load ptr, ptr %4, align 8
  %21 = getelementptr inbounds %struct._cms_iccprofile_struct, ptr %20, i32 0, i32 14
  store i32 1818455411, ptr %21, align 8
  %22 = load ptr, ptr %4, align 8
  %23 = getelementptr inbounds %struct._cms_iccprofile_struct, ptr %22, i32 0, i32 9
  store i32 1095782476, ptr %23, align 8
  %24 = load ptr, ptr %4, align 8
  %25 = getelementptr inbounds %struct._cms_iccprofile_struct, ptr %24, i32 0, i32 5
  store i32 1835955314, ptr %25, align 8
  %26 = load ptr, ptr %4, align 8
  %27 = getelementptr inbounds %struct._cms_iccprofile_struct, ptr %26, i32 0, i32 2
  %28 = call i32 @_cmsGetTime(ptr noundef %27)
  %29 = icmp ne i32 %28, 0
  br i1 %29, label %31, label %30

30:                                               ; preds = %10
  br label %37

31:                                               ; preds = %10
  %32 = load ptr, ptr %3, align 8
  %33 = call ptr @_cmsCreateMutex(ptr noundef %32)
  %34 = load ptr, ptr %4, align 8
  %35 = getelementptr inbounds %struct._cms_iccprofile_struct, ptr %34, i32 0, i32 25
  store ptr %33, ptr %35, align 8
  %36 = load ptr, ptr %4, align 8
  store ptr %36, ptr %2, align 8
  br label %40

37:                                               ; preds = %30
  %38 = load ptr, ptr %3, align 8
  %39 = load ptr, ptr %4, align 8
  call void @_cmsFree(ptr noundef %38, ptr noundef %39)
  store ptr null, ptr %2, align 8
  br label %40

40:                                               ; preds = %37, %31, %9
  %41 = load ptr, ptr %2, align 8
  ret ptr %41
}

; Function Attrs: nounwind uwtable
define hidden ptr @cmsOpenProfileFromMemTHR(ptr noundef %0, ptr noundef %1, i32 noundef %2) #0 {
  %4 = alloca ptr, align 8
  %5 = alloca ptr, align 8
  %6 = alloca ptr, align 8
  %7 = alloca i32, align 4
  %8 = alloca ptr, align 8
  %9 = alloca ptr, align 8
  store ptr %0, ptr %5, align 8
  store ptr %1, ptr %6, align 8
  store i32 %2, ptr %7, align 4
  %10 = load ptr, ptr %5, align 8
  %11 = call ptr @cmsCreateProfilePlaceholder(ptr noundef %10)
  store ptr %11, ptr %9, align 8
  %12 = load ptr, ptr %9, align 8
  %13 = icmp eq ptr %12, null
  br i1 %13, label %14, label %15

14:                                               ; preds = %3
  store ptr null, ptr %4, align 8
  br label %38

15:                                               ; preds = %3
  %16 = load ptr, ptr %9, align 8
  store ptr %16, ptr %8, align 8
  %17 = load ptr, ptr %5, align 8
  %18 = load ptr, ptr %6, align 8
  %19 = load i32, ptr %7, align 4
  %20 = call ptr @cmsOpenIOhandlerFromMem(ptr noundef %17, ptr noundef %18, i32 noundef %19, ptr noundef @.str.14)
  %21 = load ptr, ptr %8, align 8
  %22 = getelementptr inbounds %struct._cms_iccprofile_struct, ptr %21, i32 0, i32 0
  store ptr %20, ptr %22, align 8
  %23 = load ptr, ptr %8, align 8
  %24 = getelementptr inbounds %struct._cms_iccprofile_struct, ptr %23, i32 0, i32 0
  %25 = load ptr, ptr %24, align 8
  %26 = icmp eq ptr %25, null
  br i1 %26, label %27, label %28

27:                                               ; preds = %15
  br label %35

28:                                               ; preds = %15
  %29 = load ptr, ptr %8, align 8
  %30 = call i32 @_cmsReadHeader(ptr noundef %29)
  %31 = icmp ne i32 %30, 0
  br i1 %31, label %33, label %32

32:                                               ; preds = %28
  br label %35

33:                                               ; preds = %28
  %34 = load ptr, ptr %9, align 8
  store ptr %34, ptr %4, align 8
  br label %38

35:                                               ; preds = %32, %27
  %36 = load ptr, ptr %9, align 8
  %37 = call i32 @cmsCloseProfile(ptr noundef %36)
  store ptr null, ptr %4, align 8
  br label %38

38:                                               ; preds = %35, %33, %14
  %39 = load ptr, ptr %4, align 8
  ret ptr %39
}