; Function Attrs: nounwind uwtable
define hidden ptr @cmsOpenProfileFromMemTHR(ptr noundef %0, ptr noundef %1, i32 noundef %2) local_unnamed_addr #0 {
  %4 = tail call ptr @_cmsMallocZero(ptr noundef %0, i32 noundef 3760) #19
  %5 = icmp eq ptr %4, null
  br i1 %5, label %cmsCreateProfilePlaceholder.exit.thread, label %6

6:                                                ; preds = %3
  %7 = getelementptr inbounds i8, ptr %4, i64 8
  store ptr %0, ptr %7, align 8
  %8 = getelementptr inbounds i8, ptr %4, i64 140
  store i32 0, ptr %8, align 4
  %9 = getelementptr inbounds i8, ptr %4, i64 76
  store i32 34603008, ptr %9, align 4
  %10 = getelementptr inbounds i8, ptr %4, i64 72
  store i32 1818455411, ptr %10, align 8
  %11 = getelementptr inbounds i8, ptr %4, i64 120
  store i32 1818455411, ptr %11, align 8
  %12 = getelementptr inbounds i8, ptr %4, i64 96
  store i32 1095782476, ptr %12, align 8
  %13 = getelementptr inbounds i8, ptr %4, i64 80
  store i32 1835955314, ptr %13, align 8
  %14 = getelementptr inbounds i8, ptr %4, i64 16
  %15 = tail call i32 @_cmsGetTime(ptr noundef nonnull %14) #19
  %.not.i = icmp eq i32 %15, 0
  br i1 %.not.i, label %16, label %17

16:                                               ; preds = %6
  tail call void @_cmsFree(ptr noundef %0, ptr noundef nonnull %4) #19
  br label %cmsCreateProfilePlaceholder.exit.thread

17:                                               ; preds = %6
  %18 = tail call ptr @_cmsCreateMutex(ptr noundef %0) #19
  %19 = getelementptr inbounds i8, ptr %4, i64 3752
  store ptr %18, ptr %19, align 8
  %20 = tail call ptr @cmsOpenIOhandlerFromMem(ptr noundef %0, ptr noundef %1, i32 noundef %2, ptr noundef nonnull @.str.14)
  store ptr %20, ptr %4, align 8
  %21 = icmp eq ptr %20, null
  br i1 %21, label %24, label %22

22:                                               ; preds = %17
  %23 = tail call i32 @_cmsReadHeader(ptr noundef nonnull %4)
  %.not = icmp eq i32 %23, 0
  br i1 %.not, label %24, label %cmsCreateProfilePlaceholder.exit.thread

24:                                               ; preds = %22, %17
  %25 = tail call i32 @cmsCloseProfile(ptr noundef nonnull %4)
  br label %cmsCreateProfilePlaceholder.exit.thread

cmsCreateProfilePlaceholder.exit.thread:          ; preds = %3, %16, %22, %24
  %.0 = phi ptr [ null, %24 ], [ %4, %22 ], [ null, %16 ], [ null, %3 ]
  ret ptr %.0
}